; Function Attrs: nofree norecurse nosync nounwind memory(argmem: readwrite) uwtable
define internal void @vp8_idct_dc_add_c(ptr noundef captures(none) %0, ptr noundef captures(none) %1, i64 noundef %2) #1 {
.lver.check:
  %3 = load i16, ptr %1, align 2, !tbaa !126
  %4 = sext i16 %3 to i32
  %5 = add nsw i32 %4, 4
  %6 = ashr i32 %5, 3
  store i16 0, ptr %1, align 2, !tbaa !126
  %ident.check.not = icmp eq i64 %2, 1
  br i1 %ident.check.not, label %.ph, label %.ph.lver.orig

.ph.lver.orig:                                    ; preds = %.lver.check, %.ph.lver.orig
  %.028.lver.orig = phi ptr [ %30, %.ph.lver.orig ], [ %0, %.lver.check ]
  %.01727.lver.orig = phi i32 [ %31, %.ph.lver.orig ], [ 0, %.lver.check ]
  %7 = load i8, ptr %.028.lver.orig, align 1, !tbaa !10
  %8 = zext i8 %7 to i32
  %9 = add nsw i32 %6, %8
  %.not.i.lver.orig = icmp ult i32 %9, 256
  %isnotneg.i.lver.orig = icmp sgt i32 %9, -1
  %10 = sext i1 %isnotneg.i.lver.orig to i8
  %11 = trunc nuw i32 %9 to i8
  %.0.i.lver.orig = select i1 %.not.i.lver.orig, i8 %11, i8 %10
  store i8 %.0.i.lver.orig, ptr %.028.lver.orig, align 1, !tbaa !10
  %12 = getelementptr inbounds nuw i8, ptr %.028.lver.orig, i64 1
  %13 = load i8, ptr %12, align 1, !tbaa !10
  %14 = zext i8 %13 to i32
  %15 = add nsw i32 %6, %14
  %.not.i18.lver.orig = icmp ult i32 %15, 256
  %isnotneg.i19.lver.orig = icmp sgt i32 %15, -1
  %16 = sext i1 %isnotneg.i19.lver.orig to i8
  %17 = trunc nuw i32 %15 to i8
  %.0.i20.lver.orig = select i1 %.not.i18.lver.orig, i8 %17, i8 %16
  store i8 %.0.i20.lver.orig, ptr %12, align 1, !tbaa !10
  %18 = getelementptr inbounds nuw i8, ptr %.028.lver.orig, i64 2
  %19 = load i8, ptr %18, align 1, !tbaa !10
  %20 = zext i8 %19 to i32
  %21 = add nsw i32 %6, %20
  %.not.i21.lver.orig = icmp ult i32 %21, 256
  %isnotneg.i22.lver.orig = icmp sgt i32 %21, -1
  %22 = sext i1 %isnotneg.i22.lver.orig to i8
  %23 = trunc nuw i32 %21 to i8
  %.0.i23.lver.orig = select i1 %.not.i21.lver.orig, i8 %23, i8 %22
  store i8 %.0.i23.lver.orig, ptr %18, align 1, !tbaa !10
  %24 = getelementptr inbounds nuw i8, ptr %.028.lver.orig, i64 3
  %25 = load i8, ptr %24, align 1, !tbaa !10
  %26 = zext i8 %25 to i32
  %27 = add nsw i32 %6, %26
  %.not.i24.lver.orig = icmp ult i32 %27, 256
  %isnotneg.i25.lver.orig = icmp sgt i32 %27, -1
  %28 = sext i1 %isnotneg.i25.lver.orig to i8
  %29 = trunc nuw i32 %27 to i8
  %.0.i26.lver.orig = select i1 %.not.i24.lver.orig, i8 %29, i8 %28
  store i8 %.0.i26.lver.orig, ptr %24, align 1, !tbaa !10
  %30 = getelementptr inbounds i8, ptr %.028.lver.orig, i64 %2
  %31 = add nuw nsw i32 %.01727.lver.orig, 1
  %exitcond.not.lver.orig = icmp eq i32 %31, 4
  br i1 %exitcond.not.lver.orig, label %.loopexit, label %.ph.lver.orig, !llvm.loop !149

.ph:                                              ; preds = %.lver.check
  %scevgep = getelementptr nuw i8, ptr %0, i64 2
  %load_initial = load i8, ptr %scevgep, align 1
  br label %32

32:                                               ; preds = %.ph, %32
  %store_forwarded = phi i8 [ %load_initial, %.ph ], [ %.0.i26, %32 ]
  %.028 = phi ptr [ %0, %.ph ], [ %55, %32 ]
  %.01727 = phi i32 [ 0, %.ph ], [ %56, %32 ]
  %33 = load i8, ptr %.028, align 1, !tbaa !10
  %34 = zext i8 %33 to i32
  %35 = add nsw i32 %6, %34
  %.not.i = icmp ult i32 %35, 256
  %isnotneg.i = icmp sgt i32 %35, -1
  %36 = sext i1 %isnotneg.i to i8
  %37 = trunc nuw i32 %35 to i8
  %.0.i = select i1 %.not.i, i8 %37, i8 %36
  store i8 %.0.i, ptr %.028, align 1, !tbaa !10
  %38 = getelementptr inbounds nuw i8, ptr %.028, i64 1
  %39 = load i8, ptr %38, align 1, !tbaa !10
  %40 = zext i8 %39 to i32
  %41 = add nsw i32 %6, %40
  %.not.i18 = icmp ult i32 %41, 256
  %isnotneg.i19 = icmp sgt i32 %41, -1
  %42 = sext i1 %isnotneg.i19 to i8
  %43 = trunc nuw i32 %41 to i8
  %.0.i20 = select i1 %.not.i18, i8 %43, i8 %42
  store i8 %.0.i20, ptr %38, align 1, !tbaa !10
  %44 = getelementptr inbounds nuw i8, ptr %.028, i64 2
  %45 = zext i8 %store_forwarded to i32
  %46 = add nsw i32 %6, %45
  %.not.i21 = icmp ult i32 %46, 256
  %isnotneg.i22 = icmp sgt i32 %46, -1
  %47 = sext i1 %isnotneg.i22 to i8
  %48 = trunc nuw i32 %46 to i8
  %.0.i23 = select i1 %.not.i21, i8 %48, i8 %47
  store i8 %.0.i23, ptr %44, align 1, !tbaa !10
  %49 = getelementptr inbounds nuw i8, ptr %.028, i64 3
  %50 = load i8, ptr %49, align 1, !tbaa !10
  %51 = zext i8 %50 to i32
  %52 = add nsw i32 %6, %51
  %.not.i24 = icmp ult i32 %52, 256
  %isnotneg.i25 = icmp sgt i32 %52, -1
  %53 = sext i1 %isnotneg.i25 to i8
  %54 = trunc nuw i32 %52 to i8
  %.0.i26 = select i1 %.not.i24, i8 %54, i8 %53
  store i8 %.0.i26, ptr %49, align 1, !tbaa !10
  %55 = getelementptr inbounds nuw i8, ptr %.028, i64 %2
  %56 = add nuw nsw i32 %.01727, 1
  %exitcond.not = icmp eq i32 %56, 4
  br i1 %exitcond.not, label %.loopexit, label %32, !llvm.loop !149

.loopexit:                                        ; preds = %.ph.lver.orig, %32
  ret void
}